; Function Attrs: mustprogress uwtable
define void @_ZNK10open_spiel10battleship15BattleshipState17ObservationStringB5cxx11Ei(ptr dead_on_unwind noalias writable sret(%"class.std::__cxx11::basic_string") align 8 %0, ptr noundef nonnull readonly align 8 captures(none) dereferenceable(104) %1, i32 noundef %2) unnamed_addr #3 align 2 personality ptr @__gxx_personality_v0 {
  %4 = alloca %"class.std::allocator.8", align 1
  %5 = alloca %"class.absl::debian2::AlphaNum", align 8
  %6 = alloca %"class.std::__cxx11::basic_string", align 8
  %7 = alloca %"class.absl::debian2::AlphaNum", align 8
  %8 = alloca %"class.absl::debian2::AlphaNum", align 8
  %9 = alloca %"class.std::__cxx11::basic_string", align 8
  call void @_ZNSaIcEC1Ev(ptr noundef nonnull align 1 dereferenceable(1) %4) #27
  %10 = invoke noundef ptr @_ZNSt7__cxx1112basic_stringIcSt11char_traitsIcESaIcEE13_M_local_dataEv(ptr noundef nonnull align 8 dereferenceable(32) %0)
          to label %.noexc unwind label %29

.noexc:                                           ; preds = %3
  invoke void @_ZNSt7__cxx1112basic_stringIcSt11char_traitsIcESaIcEE12_Alloc_hiderC1EPcRKS3_(ptr noundef nonnull align 8 dereferenceable(32) %0, ptr noundef %10, ptr noundef nonnull align 1 dereferenceable(1) %4)
          to label %.noexc9 unwind label %29

.noexc9:                                          ; preds = %.noexc
  invoke void @_ZNSt7__cxx1112basic_stringIcSt11char_traitsIcESaIcEE12_M_constructIPKcEEvT_S8_St20forward_iterator_tag(ptr noundef nonnull align 8 dereferenceable(32) %0, ptr noundef nonnull @.str.29, ptr noundef nonnull getelementptr inbounds nuw (i8, ptr @.str.29, i64 25))
          to label %_ZNSt7__cxx1112basic_stringIcSt11char_traitsIcESaIcEEC2IS3_EEPKcRKS3_.exit unwind label %11

11:                                               ; preds = %.noexc9
  %12 = landingpad { ptr, i32 }
          cleanup
  call void @_ZNSaIcED2Ev(ptr noundef nonnull align 8 dereferenceable(32) %0) #27
  br label %.body

_ZNSt7__cxx1112basic_stringIcSt11char_traitsIcESaIcEEC2IS3_EEPKcRKS3_.exit: ; preds = %.noexc9
  call void @_ZNSaIcED1Ev(ptr noundef nonnull align 1 dereferenceable(1) %4) #27
  invoke void @_ZNK10open_spiel10battleship15BattleshipState14OwnBoardStringB5cxx11Ei(ptr dead_on_unwind nonnull writable sret(%"class.std::__cxx11::basic_string") align 8 %6, ptr noundef nonnull align 8 dereferenceable(104) %1, i32 noundef %2)
          to label %13 unwind label %31

13:                                               ; preds = %_ZNSt7__cxx1112basic_stringIcSt11char_traitsIcESaIcEEC2IS3_EEPKcRKS3_.exit
  %14 = call noundef ptr @_ZNKSt7__cxx1112basic_stringIcSt11char_traitsIcESaIcEE4dataEv(ptr noundef nonnull align 8 dereferenceable(32) %6) #27
  %15 = call noundef i64 @_ZNKSt7__cxx1112basic_stringIcSt11char_traitsIcESaIcEE4sizeEv(ptr noundef nonnull align 8 dereferenceable(32) %6) #27
  store ptr %14, ptr %5, align 8
  %16 = icmp sgt i64 %15, -1
  br i1 %16, label %_ZN4absl7debian28AlphaNumC2ISaIcEEERKNSt7__cxx1112basic_stringIcSt11char_traitsIcET_EE.exit, label %17

17:                                               ; preds = %13
  call void @llvm.trap()
  unreachable

_ZN4absl7debian28AlphaNumC2ISaIcEEERKNSt7__cxx1112basic_stringIcSt11char_traitsIcET_EE.exit: ; preds = %13
  %18 = getelementptr inbounds nuw i8, ptr %5, i64 8
  store i64 %15, ptr %18, align 8
  invoke void @_ZN4absl7debian29StrAppendEPNSt7__cxx1112basic_stringIcSt11char_traitsIcESaIcEEERKNS0_8AlphaNumE(ptr noundef nonnull %0, ptr noundef nonnull align 8 dereferenceable(48) %5)
          to label %19 unwind label %33

19:                                               ; preds = %_ZN4absl7debian28AlphaNumC2ISaIcEEERKNSt7__cxx1112basic_stringIcSt11char_traitsIcET_EE.exit
  call void @_ZNSt7__cxx1112basic_stringIcSt11char_traitsIcESaIcEED1Ev(ptr noundef nonnull align 8 dereferenceable(32) %6) #27
  store ptr @.str.30, ptr %7, align 8
  %20 = getelementptr inbounds nuw i8, ptr %7, i64 8
  store i64 25, ptr %20, align 8
  invoke void @_ZN4absl7debian29StrAppendEPNSt7__cxx1112basic_stringIcSt11char_traitsIcESaIcEEERKNS0_8AlphaNumE(ptr noundef nonnull %0, ptr noundef nonnull align 8 dereferenceable(48) %7)
          to label %21 unwind label %31

21:                                               ; preds = %19
  invoke void @_ZNK10open_spiel10battleship15BattleshipState16ShotsBoardStringB5cxx11Ei(ptr dead_on_unwind nonnull writable sret(%"class.std::__cxx11::basic_string") align 8 %9, ptr noundef nonnull align 8 dereferenceable(104) %1, i32 noundef %2)
          to label %22 unwind label %31

22:                                               ; preds = %21
  %23 = call noundef ptr @_ZNKSt7__cxx1112basic_stringIcSt11char_traitsIcESaIcEE4dataEv(ptr noundef nonnull align 8 dereferenceable(32) %9) #27
  %24 = call noundef i64 @_ZNKSt7__cxx1112basic_stringIcSt11char_traitsIcESaIcEE4sizeEv(ptr noundef nonnull align 8 dereferenceable(32) %9) #27
  store ptr %23, ptr %8, align 8
  %25 = icmp sgt i64 %24, -1
  br i1 %25, label %_ZN4absl7debian28AlphaNumC2ISaIcEEERKNSt7__cxx1112basic_stringIcSt11char_traitsIcET_EE.exit10, label %26

26:                                               ; preds = %22
  call void @llvm.trap()
  unreachable

_ZN4absl7debian28AlphaNumC2ISaIcEEERKNSt7__cxx1112basic_stringIcSt11char_traitsIcET_EE.exit10: ; preds = %22
  %27 = getelementptr inbounds nuw i8, ptr %8, i64 8
  store i64 %24, ptr %27, align 8
  invoke void @_ZN4absl7debian29StrAppendEPNSt7__cxx1112basic_stringIcSt11char_traitsIcESaIcEEERKNS0_8AlphaNumE(ptr noundef nonnull %0, ptr noundef nonnull align 8 dereferenceable(48) %8)
          to label %28 unwind label %35

28:                                               ; preds = %_ZN4absl7debian28AlphaNumC2ISaIcEEERKNSt7__cxx1112basic_stringIcSt11char_traitsIcET_EE.exit10
  call void @_ZNSt7__cxx1112basic_stringIcSt11char_traitsIcESaIcEED1Ev(ptr noundef nonnull align 8 dereferenceable(32) %9) #27
  ret void

29:                                               ; preds = %.noexc, %3
  %30 = landingpad { ptr, i32 }
          cleanup
  br label %.body

.body:                                            ; preds = %11, %29
  %eh.lpad-body = phi { ptr, i32 } [ %30, %29 ], [ %12, %11 ]
  call void @_ZNSaIcED1Ev(ptr noundef nonnull align 1 dereferenceable(1) %4) #27
  br label %38

31:                                               ; preds = %21, %19, %_ZNSt7__cxx1112basic_stringIcSt11char_traitsIcESaIcEEC2IS3_EEPKcRKS3_.exit
  %32 = landingpad { ptr, i32 }
          cleanup
  br label %37

33:                                               ; preds = %_ZN4absl7debian28AlphaNumC2ISaIcEEERKNSt7__cxx1112basic_stringIcSt11char_traitsIcET_EE.exit
  %34 = landingpad { ptr, i32 }
          cleanup
  call void @_ZNSt7__cxx1112basic_stringIcSt11char_traitsIcESaIcEED1Ev(ptr noundef nonnull align 8 dereferenceable(32) %6) #27
  br label %37

35:                                               ; preds = %_ZN4absl7debian28AlphaNumC2ISaIcEEERKNSt7__cxx1112basic_stringIcSt11char_traitsIcET_EE.exit10
  %36 = landingpad { ptr, i32 }
          cleanup
  call void @_ZNSt7__cxx1112basic_stringIcSt11char_traitsIcESaIcEED1Ev(ptr noundef nonnull align 8 dereferenceable(32) %9) #27
  br label %37

37:                                               ; preds = %35, %33, %31
  %.pn = phi { ptr, i32 } [ %36, %35 ], [ %32, %31 ], [ %34, %33 ]
  call void @_ZNSt7__cxx1112basic_stringIcSt11char_traitsIcESaIcEED1Ev(ptr noundef nonnull align 8 dereferenceable(32) %0) #27
  br label %38

38:                                               ; preds = %37, %.body
  %.pn.pn = phi { ptr, i32 } [ %.pn, %37 ], [ %eh.lpad-body, %.body ]
  resume { ptr, i32 } %.pn.pn
}